; Function Attrs: nounwind uwtable
define void @Abc_CollectTopOr(ptr noundef %0, ptr noundef captures(none) initializes((4, 8)) %1) local_unnamed_addr #1 {
  %3 = getelementptr inbounds nuw i8, ptr %1, i64 4
  store i32 0, ptr %3, align 4
  %4 = ptrtoint ptr %0 to i64
  %5 = and i64 %4, 1
  %.not = icmp eq i64 %5, 0
  br i1 %.not, label %30, label %6

6:                                                ; preds = %2
  %7 = and i64 %4, -2
  %8 = inttoptr i64 %7 to ptr
  tail call void @Abc_CollectTopOr_rec(ptr noundef %8, ptr noundef nonnull %1)
  %9 = load i32, ptr %3, align 4
  %10 = icmp slt i32 %9, 2
  br i1 %10, label %Vec_PtrUniqify.exit, label %Vec_PtrSort.exit.i

Vec_PtrSort.exit.i:                               ; preds = %6
  %11 = getelementptr inbounds nuw i8, ptr %1, i64 8
  %12 = load ptr, ptr %11, align 8
  %13 = zext nneg i32 %9 to i64
  tail call void @qsort(ptr noundef %12, i64 noundef %13, i64 noundef 8, ptr noundef nonnull @Abc_ObjCompareById) #19
  %14 = load i32, ptr %3, align 4
  %15 = icmp sgt i32 %14, 1
  br i1 %15, label %.lr.ph.i, label %._crit_edge.i

.lr.ph.i:                                         ; preds = %Vec_PtrSort.exit.i, %26
  %16 = phi i32 [ %27, %26 ], [ %14, %Vec_PtrSort.exit.i ]
  %indvars.iv.i = phi i64 [ %indvars.iv.next.i, %26 ], [ 1, %Vec_PtrSort.exit.i ]
  %.02.i = phi i32 [ %.1.i, %26 ], [ 1, %Vec_PtrSort.exit.i ]
  %17 = load ptr, ptr %11, align 8
  %18 = getelementptr inbounds nuw ptr, ptr %17, i64 %indvars.iv.i
  %19 = load ptr, ptr %18, align 8
  %20 = getelementptr i8, ptr %18, i64 -8
  %21 = load ptr, ptr %20, align 8
  %.not.i = icmp eq ptr %19, %21
  br i1 %.not.i, label %26, label %22

22:                                               ; preds = %.lr.ph.i
  %23 = add nsw i32 %.02.i, 1
  %24 = sext i32 %.02.i to i64
  %25 = getelementptr inbounds ptr, ptr %17, i64 %24
  store ptr %19, ptr %25, align 8
  %.pre.i = load i32, ptr %3, align 4
  br label %26

26:                                               ; preds = %22, %.lr.ph.i
  %27 = phi i32 [ %.pre.i, %22 ], [ %16, %.lr.ph.i ]
  %.1.i = phi i32 [ %23, %22 ], [ %.02.i, %.lr.ph.i ]
  %indvars.iv.next.i = add nuw nsw i64 %indvars.iv.i, 1
  %28 = sext i32 %27 to i64
  %29 = icmp slt i64 %indvars.iv.next.i, %28
  br i1 %29, label %.lr.ph.i, label %._crit_edge.i, !llvm.loop !4

._crit_edge.i:                                    ; preds = %26, %Vec_PtrSort.exit.i
  %.0.lcssa.i = phi i32 [ 1, %Vec_PtrSort.exit.i ], [ %.1.i, %26 ]
  store i32 %.0.lcssa.i, ptr %3, align 4
  br label %Vec_PtrUniqify.exit

30:                                               ; preds = %2
  %31 = or disjoint i64 %4, 1
  %32 = inttoptr i64 %31 to ptr
  %33 = load i32, ptr %1, align 8
  %34 = icmp eq i32 %33, 0
  %35 = getelementptr inbounds nuw i8, ptr %1, i64 8
  %36 = load ptr, ptr %35, align 8
  br i1 %34, label %37, label %Vec_PtrPush.exit

37:                                               ; preds = %30
  %.not9.i.i = icmp eq ptr %36, null
  br i1 %.not9.i.i, label %40, label %38

38:                                               ; preds = %37
  %39 = tail call dereferenceable_or_null(128) ptr @realloc(ptr noundef nonnull %36, i64 noundef 128) #17
  %.pre.pre = load i32, ptr %3, align 4
  br label %Vec_PtrGrow.exit.i

40:                                               ; preds = %37
  %41 = tail call noalias dereferenceable_or_null(128) ptr @malloc(i64 noundef 128) #18
  br label %Vec_PtrGrow.exit.i

Vec_PtrGrow.exit.i:                               ; preds = %40, %38
  %.pre = phi i32 [ %.pre.pre, %38 ], [ 0, %40 ]
  %42 = phi ptr [ %39, %38 ], [ %41, %40 ]
  store ptr %42, ptr %35, align 8
  store i32 16, ptr %1, align 8
  br label %Vec_PtrPush.exit

Vec_PtrPush.exit:                                 ; preds = %30, %Vec_PtrGrow.exit.i
  %43 = phi i32 [ %.pre, %Vec_PtrGrow.exit.i ], [ 0, %30 ]
  %44 = phi ptr [ %42, %Vec_PtrGrow.exit.i ], [ %36, %30 ]
  %45 = add nsw i32 %43, 1
  store i32 %45, ptr %3, align 4
  %46 = sext i32 %43 to i64
  %47 = getelementptr inbounds ptr, ptr %44, i64 %46
  store ptr %32, ptr %47, align 8
  br label %Vec_PtrUniqify.exit

Vec_PtrUniqify.exit:                              ; preds = %._crit_edge.i, %6, %Vec_PtrPush.exit
  ret void
}